Certificate:
    Data:
        Version: 3 (0x2)
        Serial Number: 9283 (0x2443)
        Signature Algorithm: sha256WithRSAEncryption
        Issuer: C=PL, ST=Texas, L=Lublin, O=ZHP, OU=ZMP, CN=Wojtek/emailAddress=wojtas28@spoko.pl
        Validity
            Not Before: Dec 19 10:01:57 2019 GMT
            Not After : Dec 18 10:01:57 2020 GMT
        Subject: C=PL, ST=Texas, O=ZHP, OU=ZMP, CN=pliklabserver.com/emailAddress=wojtas28@spoko.pl
        Subject Public Key Info:
            Public Key Algorithm: rsaEncryption
                RSA Public-Key: (1024 bit)
                Modulus:
                    00:b8:a4:64:be:de:b2:22:96:ea:fd:8a:e6:61:b7:
                    ca:aa:99:fc:6f:16:d0:6a:02:74:6d:fe:43:1e:93:
                    2e:2d:b6:6f:9a:db:41:a3:af:7a:77:06:44:87:d0:
                    23:3a:9a:83:f2:ff:9c:8d:54:da:0b:c6:53:7d:f7:
                    77:3c:f1:78:94:76:65:0f:a3:94:9a:b6:68:97:b2:
                    57:a7:fb:c8:32:8d:aa:a2:2f:cb:6d:16:ad:f7:9f:
                    15:85:da:3c:26:6a:89:1b:a4:fa:47:ea:e1:2b:22:
                    6c:2d:f1:1a:01:e1:b6:71:7d:d1:df:21:57:28:8a:
                    c9:9b:5e:a5:9b:b1:97:20:8b
                Exponent: 65537 (0x10001)
        X509v3 extensions:
            X509v3 Basic Constraints: 
                CA:FALSE
            Netscape Comment: 
                OpenSSL Generated Certificate
            X509v3 Subject Key Identifier: 
                B6:AA:50:01:5F:04:9D:3A:EE:05:90:24:28:85:E8:C2:51:44:6E:34
            X509v3 Authority Key Identifier: 
                keyid:B5:9D:D2:82:D7:E9:89:94:BB:50:5B:5A:A1:8D:16:10:21:D0:5E:B5

    Signature Algorithm: sha256WithRSAEncryption
         9d:ed:05:ec:2d:5d:80:ca:99:f9:25:7a:78:21:23:63:12:40:
         2c:7c:c4:31:08:40:ca:a8:10:ed:f6:97:62:cb:1a:f5:37:ca:
         75:dd:15:7a:c7:a9:cf:7c:43:b5:d5:c1:ba:b5:84:7c:1d:d3:
         7f:e2:2f:8e:ee:7b:97:77:0b:ea:fb:d8:3c:1a:92:5c:d9:cb:
         53:8b:ee:97:90:9f:f7:fc:34:55:71:77:7a:66:35:59:e9:f3:
         fb:b3:a1:00:ec:da:b6:7f:f0:4c:93:2d:56:f8:c9:28:ad:c2:
         1d:75:09:e0:84:d7:d8:c2:5c:e6:74:fe:eb:c4:89:17:09:7d:
         98:55:b2:8f:d8:f8:40:3b:93:4d:85:a3:79:88:87:53:3d:3a:
         b0:ef:82:13:34:91:4c:37:f9:06:40:da:6e:ef:48:a1:23:be:
         4d:d0:60:a2:35:11:48:5b:59:96:bc:ed:1d:cb:8e:0e:d5:c3:
         1d:77:2b:cc:24:77:20:eb:da:11:f3:ed:4e:b8:21:eb:c0:7e:
         98:08:b3:e8:a1:2c:f3:cc:09:81:07:0c:f8:34:55:d8:e7:ce:
         69:41:b2:19:bd:45:cb:39:9a:72:8b:af:f9:2a:56:78:10:f4:
         e6:70:af:05:31:33:82:18:99:46:c8:c7:64:f5:28:71:e4:15:
         09:92:3b:ca
-----BEGIN CERTIFICATE-----
MIIDZzCCAk+gAwIBAgICJEMwDQYJKoZIhvcNAQELBQAwfTELMAkGA1UEBhMCUEwx
DjAMBgNVBAgMBVRleGFzMQ8wDQYDVQQHDAZMdWJsaW4xDDAKBgNVBAoMA1pIUDEM
MAoGA1UECwwDWk1QMQ8wDQYDVQQDDAZXb2p0ZWsxIDAeBgkqhkiG9w0BCQEWEXdv
anRhczI4QHNwb2tvLnBsMB4XDTE5MTIxOTEwMDE1N1oXDTIwMTIxODEwMDE1N1ow
dzELMAkGA1UEBhMCUEwxDjAMBgNVBAgMBVRleGFzMQwwCgYDVQQKDANaSFAxDDAK
BgNVBAsMA1pNUDEaMBgGA1UEAwwRcGxpa2xhYnNlcnZlci5jb20xIDAeBgkqhkiG
9w0BCQEWEXdvanRhczI4QHNwb2tvLnBsMIGfMA0GCSqGSIb3DQEBAQUAA4GNADCB
iQKBgQC4pGS+3rIilur9iuZht8qqmfxvFtBqAnRt/kMeky4ttm+a20Gjr3p3BkSH
0CM6moPy/5yNVNoLxlN993c88XiUdmUPo5SatmiXslen+8gyjaqiL8ttFq33nxWF
2jwmaokbpPpH6uErImwt8RoB4bZxfdHfIVcoismbXqWbsZcgiwIDAQABo3sweTAJ
BgNVHRMEAjAAMCwGCWCGSAGG+EIBDQQfFh1PcGVuU1NMIEdlbmVyYXRlZCBDZXJ0
aWZpY2F0ZTAdBgNVHQ4EFgQUtqpQAV8EnTruBZAkKIXowlFEbjQwHwYDVR0jBBgw
FoAUtZ3SgtfpiZS7UFtaoY0WECHQXrUwDQYJKoZIhvcNAQELBQADggEBAJ3tBewt
XYDKmfklenghI2MSQCx8xDEIQMqoEO32l2LLGvU3ynXdFXrHqc98Q7XVwbq1hHwd
03/iL47ue5d3C+r72DwaklzZy1OL7peQn/f8NFVxd3pmNVnp8/uzoQDs2rZ/8EyT
LVb4ySitwh11CeCE19jCXOZ0/uvEiRcJfZhVso/Y+EA7k02Fo3mIh1M9OrDvghM0
kUw3+QZA2m7vSKEjvk3QYKI1EUhbWZa87R3Ljg7Vwx13K8wkdyDr2hHz7U64IevA
fpgIs+ihLPPMCYEHDPg0VdjnzmlBshm9Rcs5mnKLr/kqVngQ9OZwrwUxM4IYmUbI
x2T1KHHkFQmSO8o=
-----END CERTIFICATE-----
