Certificate:
    Data:
        Version: 3 (0x2)
        Serial Number: 9284 (0x2444)
        Signature Algorithm: sha256WithRSAEncryption
        Issuer: C=PL, ST=Texas, L=Lublin, O=ZHP, OU=ZMP, CN=Wojtek/emailAddress=wojtas28@spoko.pl
        Validity
            Not Before: Dec 19 10:41:37 2019 GMT
            Not After : Dec 18 10:41:37 2020 GMT
        Subject: C=PL, ST=Texas, L=Lublin, O=ZHP, OU=ZMP, CN=pliklabserver.com/emailAddress=wojtas28@spoko.pl
        Subject Public Key Info:
            Public Key Algorithm: rsaEncryption
                RSA Public-Key: (1024 bit)
                Modulus:
                    00:b8:a4:64:be:de:b2:22:96:ea:fd:8a:e6:61:b7:
                    ca:aa:99:fc:6f:16:d0:6a:02:74:6d:fe:43:1e:93:
                    2e:2d:b6:6f:9a:db:41:a3:af:7a:77:06:44:87:d0:
                    23:3a:9a:83:f2:ff:9c:8d:54:da:0b:c6:53:7d:f7:
                    77:3c:f1:78:94:76:65:0f:a3:94:9a:b6:68:97:b2:
                    57:a7:fb:c8:32:8d:aa:a2:2f:cb:6d:16:ad:f7:9f:
                    15:85:da:3c:26:6a:89:1b:a4:fa:47:ea:e1:2b:22:
                    6c:2d:f1:1a:01:e1:b6:71:7d:d1:df:21:57:28:8a:
                    c9:9b:5e:a5:9b:b1:97:20:8b
                Exponent: 65537 (0x10001)
        X509v3 extensions:
            X509v3 Basic Constraints: 
                CA:FALSE
            Netscape Comment: 
                OpenSSL Generated Certificate
            X509v3 Subject Key Identifier: 
                B6:AA:50:01:5F:04:9D:3A:EE:05:90:24:28:85:E8:C2:51:44:6E:34
            X509v3 Authority Key Identifier: 
                keyid:B5:9D:D2:82:D7:E9:89:94:BB:50:5B:5A:A1:8D:16:10:21:D0:5E:B5

    Signature Algorithm: sha256WithRSAEncryption
         af:50:44:d7:6d:bf:c2:7d:eb:b6:cd:f4:98:07:a0:a2:95:08:
         f9:40:22:f1:27:e9:1d:4c:d9:d9:36:d3:37:53:23:59:b3:44:
         d9:a4:a4:5e:10:8b:56:8f:16:0e:d9:74:aa:94:4c:3f:e0:29:
         81:0b:f1:23:eb:8a:06:5c:c2:77:17:34:0f:a8:c2:46:5b:f7:
         ae:0e:a2:82:f5:03:7e:73:8b:51:20:58:79:c7:dc:82:e3:da:
         0b:ec:28:f0:de:60:7b:0e:f5:66:06:04:20:b2:38:cb:cb:cb:
         d4:92:42:ac:05:6e:bb:e9:d9:5c:ef:f5:9c:a4:6e:25:0f:60:
         33:a6:fd:a2:36:ea:9b:ba:1b:1e:53:df:58:e0:08:6f:25:5d:
         9d:5d:d1:c2:65:72:3a:ee:4b:2c:70:09:ef:8b:a1:37:f4:09:
         b4:0d:e3:d3:79:96:87:4b:6e:ea:2c:b6:cb:8f:6f:40:e0:0f:
         3b:33:f5:f9:11:ec:34:fc:da:9a:8b:2e:33:d7:ec:c7:a7:28:
         81:8f:d3:23:8a:6d:0b:8a:2c:ac:cc:0f:34:e1:a2:22:cf:9a:
         d4:9a:ed:ac:f2:ee:fa:b0:17:ac:a3:a5:78:ce:ab:43:75:6b:
         38:c1:50:16:8e:67:64:2c:19:93:c5:93:a7:5e:dc:96:6a:fe:
         c7:1a:d4:52
-----BEGIN CERTIFICATE-----
MIIDeTCCAmGgAwIBAgICJEQwDQYJKoZIhvcNAQELBQAwfTELMAkGA1UEBhMCUEwx
DjAMBgNVBAgMBVRleGFzMQ8wDQYDVQQHDAZMdWJsaW4xDDAKBgNVBAoMA1pIUDEM
MAoGA1UECwwDWk1QMQ8wDQYDVQQDDAZXb2p0ZWsxIDAeBgkqhkiG9w0BCQEWEXdv
anRhczI4QHNwb2tvLnBsMB4XDTE5MTIxOTEwNDEzN1oXDTIwMTIxODEwNDEzN1ow
gYgxCzAJBgNVBAYTAlBMMQ4wDAYDVQQIDAVUZXhhczEPMA0GA1UEBwwGTHVibGlu
MQwwCgYDVQQKDANaSFAxDDAKBgNVBAsMA1pNUDEaMBgGA1UEAwwRcGxpa2xhYnNl
cnZlci5jb20xIDAeBgkqhkiG9w0BCQEWEXdvanRhczI4QHNwb2tvLnBsMIGfMA0G
CSqGSIb3DQEBAQUAA4GNADCBiQKBgQC4pGS+3rIilur9iuZht8qqmfxvFtBqAnRt
/kMeky4ttm+a20Gjr3p3BkSH0CM6moPy/5yNVNoLxlN993c88XiUdmUPo5SatmiX
slen+8gyjaqiL8ttFq33nxWF2jwmaokbpPpH6uErImwt8RoB4bZxfdHfIVcoismb
XqWbsZcgiwIDAQABo3sweTAJBgNVHRMEAjAAMCwGCWCGSAGG+EIBDQQfFh1PcGVu
U1NMIEdlbmVyYXRlZCBDZXJ0aWZpY2F0ZTAdBgNVHQ4EFgQUtqpQAV8EnTruBZAk
KIXowlFEbjQwHwYDVR0jBBgwFoAUtZ3SgtfpiZS7UFtaoY0WECHQXrUwDQYJKoZI
hvcNAQELBQADggEBAK9QRNdtv8J967bN9JgHoKKVCPlAIvEn6R1M2dk20zdTI1mz
RNmkpF4Qi1aPFg7ZdKqUTD/gKYEL8SPrigZcwncXNA+owkZb964OooL1A35zi1Eg
WHnH3ILj2gvsKPDeYHsO9WYGBCCyOMvLy9SSQqwFbrvp2Vzv9ZykbiUPYDOm/aI2
6pu6Gx5T31jgCG8lXZ1d0cJlcjruSyxwCe+LoTf0CbQN49N5lodLbuostsuPb0Dg
Dzsz9fkR7DT82pqLLjPX7MenKIGP0yOKbQuKLKzMDzThoiLPmtSa7azy7vqwF6yj
pXjOq0N1azjBUBaOZ2QsGZPFk6de3JZq/sca1FI=
-----END CERTIFICATE-----
